target datalayout = "e-m:e-p270:32:32-p271:32:32-p272:64:64-i64:64-i128:128-f80:128-n8:16:32:64-S128"
target triple = "x86_64-pc-linux-gnu"

@_warc_rdver.magic = internal constant [6 x i8] c"WARC/\00", align 1
@.str.3 = private unnamed_addr constant [3 x i8] c"\0D\0A\00", align 1

; Function Attrs: nounwind uwtable
define internal i32 @_warc_rdver(ptr noundef %0, i64 noundef %1) #0 {
  %3 = alloca i32, align 4
  %4 = alloca ptr, align 8
  %5 = alloca i64, align 8
  %6 = alloca ptr, align 8
  %7 = alloca i32, align 4
  %8 = alloca i32, align 4
  %9 = alloca i32, align 4
  store ptr %0, ptr %4, align 8, !tbaa !15
  store i64 %1, ptr %5, align 8, !tbaa !17
  call void @llvm.lifetime.start.p0(i64 8, ptr %6) #10
  call void @llvm.lifetime.start.p0(i64 4, ptr %7) #10
  store i32 0, ptr %7, align 4, !tbaa !11
  call void @llvm.lifetime.start.p0(i64 4, ptr %8) #10
  store i32 0, ptr %8, align 4, !tbaa !11
  %10 = load i64, ptr %5, align 8, !tbaa !17
  %11 = icmp ult i64 %10, 12
  br i1 %11, label %16, label %12

12:                                               ; preds = %2
  %13 = load ptr, ptr %4, align 8, !tbaa !15
  %14 = call i32 @memcmp(ptr noundef %13, ptr noundef @_warc_rdver.magic, i64 noundef 5) #13
  %15 = icmp ne i32 %14, 0
  br i1 %15, label %16, label %18

16:                                               ; preds = %12, %2
  %17 = load i32, ptr %7, align 4, !tbaa !11
  store i32 %17, ptr %3, align 4
  store i32 1, ptr %9, align 4
  br label %130

18:                                               ; preds = %12
  %19 = load ptr, ptr %4, align 8, !tbaa !15
  %20 = getelementptr inbounds nuw i8, ptr %19, i64 5
  store ptr %20, ptr %4, align 8, !tbaa !15
  %21 = call ptr @__ctype_b_loc() #14
  %22 = load ptr, ptr %21, align 8, !tbaa !53
  %23 = load ptr, ptr %4, align 8, !tbaa !15
  %24 = getelementptr inbounds nuw i8, ptr %23, i64 0
  %25 = load i8, ptr %24, align 1, !tbaa !46
  %26 = zext i8 %25 to i32
  %27 = sext i32 %26 to i64
  %28 = getelementptr inbounds i16, ptr %22, i64 %27
  %29 = load i16, ptr %28, align 2, !tbaa !55
  %30 = zext i16 %29 to i32
  %31 = and i32 %30, 2048
  %32 = icmp ne i32 %31, 0
  br i1 %32, label %33, label %128

33:                                               ; preds = %18
  %34 = load ptr, ptr %4, align 8, !tbaa !15
  %35 = getelementptr inbounds nuw i8, ptr %34, i64 1
  %36 = load i8, ptr %35, align 1, !tbaa !46
  %37 = sext i8 %36 to i32
  %38 = icmp eq i32 %37, 46
  br i1 %38, label %39, label %128

39:                                               ; preds = %33
  %40 = call ptr @__ctype_b_loc() #14
  %41 = load ptr, ptr %40, align 8, !tbaa !53
  %42 = load ptr, ptr %4, align 8, !tbaa !15
  %43 = getelementptr inbounds nuw i8, ptr %42, i64 2
  %44 = load i8, ptr %43, align 1, !tbaa !46
  %45 = zext i8 %44 to i32
  %46 = sext i32 %45 to i64
  %47 = getelementptr inbounds i16, ptr %41, i64 %46
  %48 = load i16, ptr %47, align 2, !tbaa !55
  %49 = zext i16 %48 to i32
  %50 = and i32 %49, 2048
  %51 = icmp ne i32 %50, 0
  br i1 %51, label %52, label %128

52:                                               ; preds = %39
  %53 = call ptr @__ctype_b_loc() #14
  %54 = load ptr, ptr %53, align 8, !tbaa !53
  %55 = load ptr, ptr %4, align 8, !tbaa !15
  %56 = getelementptr inbounds nuw i8, ptr %55, i64 3
  %57 = load i8, ptr %56, align 1, !tbaa !46
  %58 = zext i8 %57 to i32
  %59 = sext i32 %58 to i64
  %60 = getelementptr inbounds i16, ptr %54, i64 %59
  %61 = load i16, ptr %60, align 2, !tbaa !55
  %62 = zext i16 %61 to i32
  %63 = and i32 %62, 2048
  %64 = icmp ne i32 %63, 0
  br i1 %64, label %65, label %66

65:                                               ; preds = %52
  store i32 1, ptr %8, align 4, !tbaa !11
  br label %66

66:                                               ; preds = %65, %52
  %67 = load ptr, ptr %4, align 8, !tbaa !15
  %68 = getelementptr inbounds nuw i8, ptr %67, i64 0
  %69 = load i8, ptr %68, align 1, !tbaa !46
  %70 = sext i8 %69 to i32
  %71 = sub nsw i32 %70, 48
  %72 = mul i32 %71, 10000
  store i32 %72, ptr %7, align 4, !tbaa !11
  %73 = load i32, ptr %8, align 4, !tbaa !11
  %74 = icmp eq i32 %73, 1
  br i1 %74, label %75, label %92

75:                                               ; preds = %66
  %76 = load ptr, ptr %4, align 8, !tbaa !15
  %77 = getelementptr inbounds nuw i8, ptr %76, i64 2
  %78 = load i8, ptr %77, align 1, !tbaa !46
  %79 = sext i8 %78 to i32
  %80 = sub nsw i32 %79, 48
  %81 = mul i32 %80, 1000
  %82 = load i32, ptr %7, align 4, !tbaa !11
  %83 = add i32 %82, %81
  store i32 %83, ptr %7, align 4, !tbaa !11
  %84 = load ptr, ptr %4, align 8, !tbaa !15
  %85 = getelementptr inbounds nuw i8, ptr %84, i64 3
  %86 = load i8, ptr %85, align 1, !tbaa !46
  %87 = sext i8 %86 to i32
  %88 = sub nsw i32 %87, 48
  %89 = mul i32 %88, 100
  %90 = load i32, ptr %7, align 4, !tbaa !11
  %91 = add i32 %90, %89
  store i32 %91, ptr %7, align 4, !tbaa !11
  br label %101

92:                                               ; preds = %66
  %93 = load ptr, ptr %4, align 8, !tbaa !15
  %94 = getelementptr inbounds nuw i8, ptr %93, i64 2
  %95 = load i8, ptr %94, align 1, !tbaa !46
  %96 = sext i8 %95 to i32
  %97 = sub nsw i32 %96, 48
  %98 = mul i32 %97, 100
  %99 = load i32, ptr %7, align 4, !tbaa !11
  %100 = add i32 %99, %98
  store i32 %100, ptr %7, align 4, !tbaa !11
  br label %101

101:                                              ; preds = %92, %75
  %102 = load ptr, ptr %4, align 8, !tbaa !15
  %103 = getelementptr inbounds nuw i8, ptr %102, i64 3
  %104 = load i32, ptr %8, align 4, !tbaa !11
  %105 = zext i32 %104 to i64
  %106 = getelementptr inbounds nuw i8, ptr %103, i64 %105
  store ptr %106, ptr %6, align 8, !tbaa !15
  %107 = load i32, ptr %7, align 4, !tbaa !11
  %108 = icmp uge i32 %107, 1200
  br i1 %108, label %109, label %115

109:                                              ; preds = %101
  %110 = load ptr, ptr %6, align 8, !tbaa !15
  %111 = call i32 @memcmp(ptr noundef %110, ptr noundef @.str.3, i64 noundef 2) #13
  %112 = icmp ne i32 %111, 0
  br i1 %112, label %113, label %114

113:                                              ; preds = %109
  store i32 0, ptr %7, align 4, !tbaa !11
  br label %114

114:                                              ; preds = %113, %109
  br label %127

115:                                              ; preds = %101
  %116 = load ptr, ptr %6, align 8, !tbaa !15
  %117 = load i8, ptr %116, align 1, !tbaa !46
  %118 = sext i8 %117 to i32
  %119 = icmp ne i32 %118, 32
  br i1 %119, label %120, label %126

120:                                              ; preds = %115
  %121 = load ptr, ptr %6, align 8, !tbaa !15
  %122 = load i8, ptr %121, align 1, !tbaa !46
  %123 = sext i8 %122 to i32
  %124 = icmp ne i32 %123, 9
  br i1 %124, label %125, label %126

125:                                              ; preds = %120
  store i32 0, ptr %7, align 4, !tbaa !11
  br label %126

126:                                              ; preds = %125, %120, %115
  br label %127

127:                                              ; preds = %126, %114
  br label %128

128:                                              ; preds = %127, %39, %33, %18
  %129 = load i32, ptr %7, align 4, !tbaa !11
  store i32 %129, ptr %3, align 4
  store i32 1, ptr %9, align 4
  br label %130

130:                                              ; preds = %128, %16
  call void @llvm.lifetime.end.p0(i64 4, ptr %8) #10
  call void @llvm.lifetime.end.p0(i64 4, ptr %7) #10
  call void @llvm.lifetime.end.p0(i64 8, ptr %6) #10
  %131 = load i32, ptr %3, align 4
  ret i32 %131
}