; Function Attrs: mustprogress nofree nounwind willreturn memory(read, inaccessiblemem: none) uwtable
define internal fastcc range(i32 -1953600, 876901) i32 @_warc_rdver(ptr noundef nonnull readonly captures(none) %0, i64 noundef %1) unnamed_addr #5 {
  %3 = icmp ult i64 %1, 12
  br i1 %3, label %53, label %4

4:                                                ; preds = %2
  %bcmp = tail call i32 @bcmp(ptr noundef nonnull dereferenceable(5) %0, ptr noundef nonnull dereferenceable(5) @_warc_rdver.magic, i64 5)
  %.not = icmp eq i32 %bcmp, 0
  br i1 %.not, label %5, label %53

5:                                                ; preds = %4
  %6 = getelementptr inbounds nuw i8, ptr %0, i64 5
  %7 = tail call ptr @__ctype_b_loc() #19
  %8 = load ptr, ptr %7, align 8, !tbaa !34
  %9 = load i8, ptr %6, align 1, !tbaa !28
  %10 = zext i8 %9 to i64
  %11 = getelementptr inbounds nuw i16, ptr %8, i64 %10
  %12 = load i16, ptr %11, align 2, !tbaa !36
  %13 = and i16 %12, 2048
  %.not26 = icmp eq i16 %13, 0
  br i1 %.not26, label %53, label %14

14:                                               ; preds = %5
  %15 = getelementptr inbounds nuw i8, ptr %0, i64 6
  %16 = load i8, ptr %15, align 1, !tbaa !28
  %17 = icmp eq i8 %16, 46
  br i1 %17, label %18, label %53

18:                                               ; preds = %14
  %19 = getelementptr inbounds nuw i8, ptr %0, i64 7
  %20 = load i8, ptr %19, align 1, !tbaa !28
  %21 = zext i8 %20 to i64
  %22 = getelementptr inbounds nuw i16, ptr %8, i64 %21
  %23 = load i16, ptr %22, align 2, !tbaa !36
  %24 = and i16 %23, 2048
  %.not27 = icmp eq i16 %24, 0
  br i1 %.not27, label %53, label %25

25:                                               ; preds = %18
  %26 = getelementptr inbounds nuw i8, ptr %0, i64 8
  %27 = load i8, ptr %26, align 1, !tbaa !28
  %28 = zext i8 %27 to i64
  %29 = getelementptr inbounds nuw i16, ptr %8, i64 %28
  %30 = load i16, ptr %29, align 2, !tbaa !36
  %31 = and i16 %30, 2048
  %.not28.not.not = icmp eq i16 %31, 0
  %.lobit = lshr exact i16 %31, 11
  %spec.select = zext nneg i16 %.lobit to i64
  %32 = sext i8 %9 to i32
  %33 = mul nsw i32 %32, 10000
  %34 = sext i8 %20 to i32
  br i1 %.not28.not.not, label %42, label %35

35:                                               ; preds = %25
  %36 = mul nsw i32 %34, 1000
  %37 = sext i8 %27 to i32
  %38 = mul nsw i32 %37, 100
  %39 = add nsw i32 %33, -532800
  %40 = add nsw i32 %39, %36
  %41 = add nsw i32 %40, %38
  br label %46

42:                                               ; preds = %25
  %43 = mul nsw i32 %34, 100
  %44 = add nsw i32 %33, -484800
  %45 = add nsw i32 %44, %43
  br label %46

46:                                               ; preds = %42, %35
  %.1 = phi i32 [ %41, %35 ], [ %45, %42 ]
  %47 = getelementptr inbounds nuw i8, ptr %26, i64 %spec.select
  %48 = icmp ugt i32 %.1, 1199
  br i1 %48, label %49, label %50

49:                                               ; preds = %46
  %bcmp31 = tail call i32 @bcmp(ptr noundef nonnull dereferenceable(2) %47, ptr noundef nonnull dereferenceable(2) @.str.3, i64 2)
  %.not32 = icmp eq i32 %bcmp31, 0
  %spec.select33 = select i1 %.not32, i32 %.1, i32 0
  br label %53

50:                                               ; preds = %46
  %51 = load i8, ptr %47, align 1, !tbaa !28
  switch i8 %51, label %52 [
    i8 32, label %53
    i8 9, label %53
  ]

52:                                               ; preds = %50
  br label %53

53:                                               ; preds = %49, %5, %14, %18, %52, %50, %50, %2, %4
  %.024 = phi i32 [ 0, %4 ], [ 0, %2 ], [ 0, %52 ], [ %.1, %50 ], [ 0, %18 ], [ 0, %14 ], [ 0, %5 ], [ %spec.select33, %49 ], [ %.1, %50 ]
  ret i32 %.024
}